; Function Attrs: nounwind uwtable
define dso_local void @strbuf_git_common_path(ptr noundef %0, ptr noundef readonly captures(none) %1, ptr noundef %2, ...) local_unnamed_addr #3 {
  %4 = alloca [1 x %struct.__va_list_tag], align 16
  call void @llvm.lifetime.start.p0(i64 24, ptr nonnull %4) #29
  call void @llvm.va_start.p0(ptr nonnull %4)
  call void @repo_common_pathv(ptr noundef %1, ptr noundef %0, ptr noundef %2, ptr noundef nonnull %4)
  call void @llvm.va_end.p0(ptr nonnull %4)
  call void @llvm.lifetime.end.p0(i64 24, ptr nonnull %4) #29
  ret void
}